; Function Attrs: mustprogress uwtable
define noalias noundef nonnull ptr @llama_sampler_init_xtc(float noundef %0, float noundef %1, i64 noundef %2, i32 noundef %3) local_unnamed_addr #0 personality ptr @__gxx_personality_v0 {
  %5 = tail call fastcc noundef i32 @_ZL12get_rng_seedj(i32 noundef %3)
  %6 = tail call noalias noundef nonnull dereferenceable(5024) ptr @_Znwm(i64 noundef 5024) #30
  store float %0, ptr %6, align 16, !tbaa !76
  %7 = getelementptr inbounds nuw i8, ptr %6, i64 4
  store float %1, ptr %7, align 4, !tbaa !78
  %8 = getelementptr inbounds nuw i8, ptr %6, i64 8
  store i64 %2, ptr %8, align 8, !tbaa !79
  %9 = getelementptr inbounds nuw i8, ptr %6, i64 16
  store i32 %3, ptr %9, align 16, !tbaa !80
  %10 = getelementptr inbounds nuw i8, ptr %6, i64 20
  store i32 %5, ptr %10, align 4, !tbaa !81
  %11 = getelementptr inbounds nuw i8, ptr %6, i64 24
  %12 = zext i32 %5 to i64
  store i64 %12, ptr %11, align 8, !tbaa !46
  br label %13

13:                                               ; preds = %13, %4
  %14 = phi i64 [ %12, %4 ], [ %19, %13 ]
  %.011.i.i = phi i64 [ 1, %4 ], [ %21, %13 ]
  %15 = lshr i64 %14, 30
  %16 = xor i64 %15, %14
  %17 = mul nuw nsw i64 %16, 1812433253
  %18 = add nuw i64 %17, %.011.i.i
  %19 = and i64 %18, 4294967295
  %20 = getelementptr inbounds nuw [624 x i64], ptr %11, i64 0, i64 %.011.i.i
  store i64 %19, ptr %20, align 8, !tbaa !46
  %21 = add nuw nsw i64 %.011.i.i, 1
  %exitcond.not.i.i = icmp eq i64 %21, 624
  br i1 %exitcond.not.i.i, label %22, label %13, !llvm.loop !47

22:                                               ; preds = %13
  %23 = getelementptr inbounds nuw i8, ptr %6, i64 5016
  store i64 624, ptr %23, align 8, !tbaa !48
  %24 = tail call noalias noundef nonnull dereferenceable(16) ptr @_Znwm(i64 noundef 16) #30
  store ptr @_ZL19llama_sampler_xtc_i, ptr %24, align 16, !tbaa !3
  %25 = getelementptr inbounds nuw i8, ptr %24, i64 8
  store ptr %6, ptr %25, align 8, !tbaa !9
  ret ptr %24
}